; Function Attrs: mustprogress uwtable
define void @_ZN3net25QuicStreamSequencerBuffer18ReleaseWholeBufferEv(ptr noundef nonnull align 8 dereferenceable(120) %0) local_unnamed_addr #2 align 2 {
  %2 = getelementptr inbounds nuw i8, ptr %0, i64 48
  %3 = load i8, ptr %2, align 8, !tbaa !47, !range !45, !noundef !46
  %4 = trunc nuw i8 %3 to i1
  br i1 %4, label %5, label %_ZNSt10unique_ptrIA_PN3net25QuicStreamSequencerBuffer11BufferBlockESt14default_deleteIS4_EE5resetEDn.exit

5:                                                ; preds = %1
  tail call void @_ZN3net25QuicStreamSequencerBuffer5ClearEv(ptr noundef nonnull align 8 dereferenceable(120) %0)
  %6 = getelementptr inbounds nuw i8, ptr %0, i64 56
  %7 = load ptr, ptr %6, align 8, !tbaa !48
  store ptr null, ptr %6, align 8, !tbaa !48
  %.not.i.i.i = icmp eq ptr %7, null
  br i1 %.not.i.i.i, label %_ZNSt10unique_ptrIA_PN3net25QuicStreamSequencerBuffer11BufferBlockESt14default_deleteIS4_EE5resetEDn.exit, label %_ZNKSt14default_deleteIA_PN3net25QuicStreamSequencerBuffer11BufferBlockEEclIS3_EENSt9enable_ifIXsr14is_convertibleIPA_T_PS4_EE5valueEvE4typeEPS8_.exit.i.i.i

_ZNKSt14default_deleteIA_PN3net25QuicStreamSequencerBuffer11BufferBlockEEclIS3_EENSt9enable_ifIXsr14is_convertibleIPA_T_PS4_EE5valueEvE4typeEPS8_.exit.i.i.i: ; preds = %5
  tail call void @_ZdaPv(ptr noundef nonnull %7) #24
  br label %_ZNSt10unique_ptrIA_PN3net25QuicStreamSequencerBuffer11BufferBlockESt14default_deleteIS4_EE5resetEDn.exit

_ZNSt10unique_ptrIA_PN3net25QuicStreamSequencerBuffer11BufferBlockESt14default_deleteIS4_EE5resetEDn.exit: ; preds = %_ZNKSt14default_deleteIA_PN3net25QuicStreamSequencerBuffer11BufferBlockEEclIS3_EENSt9enable_ifIXsr14is_convertibleIPA_T_PS4_EE5valueEvE4typeEPS8_.exit.i.i.i, %5, %1
  ret void
}